target datalayout = "e-m:e-p270:32:32-p271:32:32-p272:64:64-i64:64-i128:128-f80:128-n8:16:32:64-S128"
target triple = "x86_64-unknown-linux-gnu"

%"class.std::__cxx11::basic_string" = type { %"struct.std::__cxx11::basic_string<char>::_Alloc_hider", i64, %union.anon }
%"struct.std::__cxx11::basic_string<char>::_Alloc_hider" = type { ptr }
%union.anon = type { i64, [8 x i8] }
%"class.rocksdb::InternalKeyComparator" = type { %"class.rocksdb::CompareInterface", %"class.rocksdb::UserComparatorWrapper" }
%"class.rocksdb::CompareInterface" = type { ptr }
%"class.rocksdb::UserComparatorWrapper" = type { ptr }
%"class.rocksdb::ColumnFamilyData" = type { i32, %"class.std::__cxx11::basic_string", ptr, ptr, %"struct.std::atomic", %"struct.std::atomic.3", %"struct.std::atomic.3", %"class.rocksdb::InternalKeyComparator", %"class.std::vector.5", %"struct.rocksdb::ColumnFamilyOptions", %"struct.rocksdb::ImmutableOptions", %"struct.rocksdb::MutableCFOptions", i8, %"class.std::unique_ptr", %"class.std::unique_ptr.92", %"class.std::unique_ptr.100", %"class.std::unique_ptr.108", ptr, ptr, %"class.rocksdb::MemTableList", ptr, %"struct.std::atomic.116", %"class.std::unique_ptr.118", ptr, ptr, i64, %"class.std::unique_ptr.126", ptr, %"class.std::unique_ptr.134", i8, i8, i64, i8, %"struct.std::atomic.116", %"class.std::vector.142", i8, %"class.std::__cxx11::basic_string", %"class.std::shared_ptr.147", i8, %"struct.std::atomic.116" }
%"struct.std::atomic" = type { %"struct.std::__atomic_base" }
%"struct.std::__atomic_base" = type { i32 }
%"struct.std::atomic.3" = type { %"struct.std::__atomic_base.4" }
%"struct.std::__atomic_base.4" = type { i8 }
%"class.std::vector.5" = type { %"struct.std::_Vector_base.6" }
%"struct.std::_Vector_base.6" = type { %"struct.std::_Vector_base<std::unique_ptr<rocksdb::IntTblPropCollectorFactory>, std::allocator<std::unique_ptr<rocksdb::IntTblPropCollectorFactory>>>::_Vector_impl" }
%"struct.std::_Vector_base<std::unique_ptr<rocksdb::IntTblPropCollectorFactory>, std::allocator<std::unique_ptr<rocksdb::IntTblPropCollectorFactory>>>::_Vector_impl" = type { %"struct.std::_Vector_base<std::unique_ptr<rocksdb::IntTblPropCollectorFactory>, std::allocator<std::unique_ptr<rocksdb::IntTblPropCollectorFactory>>>::_Vector_impl_data" }
%"struct.std::_Vector_base<std::unique_ptr<rocksdb::IntTblPropCollectorFactory>, std::allocator<std::unique_ptr<rocksdb::IntTblPropCollectorFactory>>>::_Vector_impl_data" = type { ptr, ptr, ptr }
%"struct.rocksdb::ColumnFamilyOptions" = type <{ %"struct.rocksdb::AdvancedColumnFamilyOptions", ptr, %"class.std::shared_ptr.36", ptr, %"class.std::shared_ptr.39", i64, i8, i8, [6 x i8], %"struct.rocksdb::CompressionOptions", %"struct.rocksdb::CompressionOptions", i32, [4 x i8], %"class.std::shared_ptr", i64, i64, i8, [7 x i8], %"class.std::shared_ptr.42", %"class.std::vector.45", %"class.std::shared_ptr.50", %"class.std::shared_ptr.53", i32, [4 x i8] }>
%"struct.rocksdb::AdvancedColumnFamilyOptions" = type { i32, i32, i32, i64, i8, i64, double, ptr, double, i8, i64, %"class.std::shared_ptr", i32, i64, %"class.std::vector.10", i32, i32, i32, i64, i32, i8, i8, double, %"class.std::vector.15", i64, i8, i64, i64, i8, i8, [2 x i8], %"class.rocksdb::CompactionOptionsUniversal", %"struct.rocksdb::CompactionOptionsFIFO", i64, %"class.std::shared_ptr.25", %"class.std::vector.28", i64, i8, i8, i8, i8, i8, i64, i64, i64, i8, i8, i8, i64, i64, i8, i64, i64, i8, i8, double, double, i64, i32, %"class.std::shared_ptr.33", i8, i32, i8, i8, i32 }
%"class.std::vector.10" = type { %"struct.std::_Vector_base.11" }
%"struct.std::_Vector_base.11" = type { %"struct.std::_Vector_base<rocksdb::CompressionType, std::allocator<rocksdb::CompressionType>>::_Vector_impl" }
%"struct.std::_Vector_base<rocksdb::CompressionType, std::allocator<rocksdb::CompressionType>>::_Vector_impl" = type { %"struct.std::_Vector_base<rocksdb::CompressionType, std::allocator<rocksdb::CompressionType>>::_Vector_impl_data" }
%"struct.std::_Vector_base<rocksdb::CompressionType, std::allocator<rocksdb::CompressionType>>::_Vector_impl_data" = type { ptr, ptr, ptr }
%"class.std::vector.15" = type { %"struct.std::_Vector_base.16" }
%"struct.std::_Vector_base.16" = type { %"struct.std::_Vector_base<int, std::allocator<int>>::_Vector_impl" }
%"struct.std::_Vector_base<int, std::allocator<int>>::_Vector_impl" = type { %"struct.std::_Vector_base<int, std::allocator<int>>::_Vector_impl_data" }
%"struct.std::_Vector_base<int, std::allocator<int>>::_Vector_impl_data" = type { ptr, ptr, ptr }
%"class.rocksdb::CompactionOptionsUniversal" = type <{ i32, i32, i32, i32, i32, i32, i8, i8, [2 x i8] }>
%"struct.rocksdb::CompactionOptionsFIFO" = type { i64, i8, i64, %"class.std::vector.20" }
%"class.std::vector.20" = type { %"struct.std::_Vector_base.21" }
%"struct.std::_Vector_base.21" = type { %"struct.std::_Vector_base<rocksdb::FileTemperatureAge, std::allocator<rocksdb::FileTemperatureAge>>::_Vector_impl" }
%"struct.std::_Vector_base<rocksdb::FileTemperatureAge, std::allocator<rocksdb::FileTemperatureAge>>::_Vector_impl" = type { %"struct.std::_Vector_base<rocksdb::FileTemperatureAge, std::allocator<rocksdb::FileTemperatureAge>>::_Vector_impl_data" }
%"struct.std::_Vector_base<rocksdb::FileTemperatureAge, std::allocator<rocksdb::FileTemperatureAge>>::_Vector_impl_data" = type { ptr, ptr, ptr }
%"class.std::shared_ptr.25" = type { %"class.std::__shared_ptr.26" }
%"class.std::__shared_ptr.26" = type { ptr, %"class.std::__shared_count" }
%"class.std::__shared_count" = type { ptr }
%"class.std::vector.28" = type { %"struct.std::_Vector_base.29" }
%"struct.std::_Vector_base.29" = type { %"struct.std::_Vector_base<std::shared_ptr<rocksdb::TablePropertiesCollectorFactory>, std::allocator<std::shared_ptr<rocksdb::TablePropertiesCollectorFactory>>>::_Vector_impl" }
%"struct.std::_Vector_base<std::shared_ptr<rocksdb::TablePropertiesCollectorFactory>, std::allocator<std::shared_ptr<rocksdb::TablePropertiesCollectorFactory>>>::_Vector_impl" = type { %"struct.std::_Vector_base<std::shared_ptr<rocksdb::TablePropertiesCollectorFactory>, std::allocator<std::shared_ptr<rocksdb::TablePropertiesCollectorFactory>>>::_Vector_impl_data" }
%"struct.std::_Vector_base<std::shared_ptr<rocksdb::TablePropertiesCollectorFactory>, std::allocator<std::shared_ptr<rocksdb::TablePropertiesCollectorFactory>>>::_Vector_impl_data" = type { ptr, ptr, ptr }
%"class.std::shared_ptr.33" = type { %"class.std::__shared_ptr.34" }
%"class.std::__shared_ptr.34" = type { ptr, %"class.std::__shared_count" }
%"class.std::shared_ptr.36" = type { %"class.std::__shared_ptr.37" }
%"class.std::__shared_ptr.37" = type { ptr, %"class.std::__shared_count" }
%"class.std::shared_ptr.39" = type { %"class.std::__shared_ptr.40" }
%"class.std::__shared_ptr.40" = type { ptr, %"class.std::__shared_count" }
%"struct.rocksdb::CompressionOptions" = type <{ i32, i32, i32, i32, i32, i32, i8, [7 x i8], i64, i8, [3 x i8], i32, i8, [7 x i8] }>
%"class.std::shared_ptr" = type { %"class.std::__shared_ptr" }
%"class.std::__shared_ptr" = type { ptr, %"class.std::__shared_count" }
%"class.std::shared_ptr.42" = type { %"class.std::__shared_ptr.43" }
%"class.std::__shared_ptr.43" = type { ptr, %"class.std::__shared_count" }
%"class.std::vector.45" = type { %"struct.std::_Vector_base.46" }
%"struct.std::_Vector_base.46" = type { %"struct.std::_Vector_base<rocksdb::DbPath, std::allocator<rocksdb::DbPath>>::_Vector_impl" }
%"struct.std::_Vector_base<rocksdb::DbPath, std::allocator<rocksdb::DbPath>>::_Vector_impl" = type { %"struct.std::_Vector_base<rocksdb::DbPath, std::allocator<rocksdb::DbPath>>::_Vector_impl_data" }
%"struct.std::_Vector_base<rocksdb::DbPath, std::allocator<rocksdb::DbPath>>::_Vector_impl_data" = type { ptr, ptr, ptr }
%"class.std::shared_ptr.50" = type { %"class.std::__shared_ptr.51" }
%"class.std::__shared_ptr.51" = type { ptr, %"class.std::__shared_count" }
%"class.std::shared_ptr.53" = type { %"class.std::__shared_ptr.54" }
%"class.std::__shared_ptr.54" = type { ptr, %"class.std::__shared_count" }
%"struct.rocksdb::ImmutableOptions" = type { %"struct.rocksdb::ImmutableDBOptions.base", [7 x i8], %"struct.rocksdb::ImmutableCFOptions.base", [7 x i8] }
%"struct.rocksdb::ImmutableDBOptions.base" = type <{ i8, i8, i8, i8, i8, i8, i8, i8, ptr, %"class.std::shared_ptr.56", %"class.std::shared_ptr.59", %"class.std::shared_ptr.62", i8, [3 x i8], i32, %"class.std::shared_ptr.65", i8, [7 x i8], %"class.std::vector.45", %"class.std::__cxx11::basic_string", %"class.std::__cxx11::basic_string", i64, i64, i64, i64, i64, i32, [4 x i8], i64, i64, i64, i64, i8, i8, i8, i8, i8, i8, i8, i8, i64, %"class.std::shared_ptr.68", i32, [4 x i8], i64, i8, [7 x i8], %"class.std::vector.71", i8, i8, i8, i8, i8, [3 x i8], i64, i64, i8, i8, i8, i8, [4 x i8], %"class.std::shared_ptr.33", ptr, i8, i8, i8, i8, i8, i8, i8, i8, i8, i8, i8, [5 x i8], i64, %"class.std::shared_ptr.76", i8, [3 x i8], i32, i64, i8, [7 x i8], %"class.std::__cxx11::basic_string", %"class.rocksdb::SmallEnumSet", i8, [7 x i8], %"class.std::shared_ptr.79", ptr, ptr, ptr, %"class.std::shared_ptr.82", i8 }>
%"class.std::shared_ptr.56" = type { %"class.std::__shared_ptr.57" }
%"class.std::__shared_ptr.57" = type { ptr, %"class.std::__shared_count" }
%"class.std::shared_ptr.59" = type { %"class.std::__shared_ptr.60" }
%"class.std::__shared_ptr.60" = type { ptr, %"class.std::__shared_count" }
%"class.std::shared_ptr.62" = type { %"class.std::__shared_ptr.63" }
%"class.std::__shared_ptr.63" = type { ptr, %"class.std::__shared_count" }
%"class.std::shared_ptr.65" = type { %"class.std::__shared_ptr.66" }
%"class.std::__shared_ptr.66" = type { ptr, %"class.std::__shared_count" }
%"class.std::shared_ptr.68" = type { %"class.std::__shared_ptr.69" }
%"class.std::__shared_ptr.69" = type { ptr, %"class.std::__shared_count" }
%"class.std::vector.71" = type { %"struct.std::_Vector_base.72" }
%"struct.std::_Vector_base.72" = type { %"struct.std::_Vector_base<std::shared_ptr<rocksdb::EventListener>, std::allocator<std::shared_ptr<rocksdb::EventListener>>>::_Vector_impl" }
%"struct.std::_Vector_base<std::shared_ptr<rocksdb::EventListener>, std::allocator<std::shared_ptr<rocksdb::EventListener>>>::_Vector_impl" = type { %"struct.std::_Vector_base<std::shared_ptr<rocksdb::EventListener>, std::allocator<std::shared_ptr<rocksdb::EventListener>>>::_Vector_impl_data" }
%"struct.std::_Vector_base<std::shared_ptr<rocksdb::EventListener>, std::allocator<std::shared_ptr<rocksdb::EventListener>>>::_Vector_impl_data" = type { ptr, ptr, ptr }
%"class.std::shared_ptr.76" = type { %"class.std::__shared_ptr.77" }
%"class.std::__shared_ptr.77" = type { ptr, %"class.std::__shared_count" }
%"class.rocksdb::SmallEnumSet" = type { i64 }
%"class.std::shared_ptr.79" = type { %"class.std::__shared_ptr.80" }
%"class.std::__shared_ptr.80" = type { ptr, %"class.std::__shared_count" }
%"class.std::shared_ptr.82" = type { %"class.std::__shared_ptr.83" }
%"class.std::__shared_ptr.83" = type { ptr, %"class.std::__shared_count" }
%"struct.rocksdb::ImmutableCFOptions.base" = type <{ i8, i8, [6 x i8], ptr, %"class.rocksdb::InternalKeyComparator", %"class.std::shared_ptr.36", ptr, %"class.std::shared_ptr.39", i32, i32, i64, i8, [7 x i8], ptr, %"class.std::shared_ptr.25", %"class.std::shared_ptr.42", %"class.std::vector.28", i32, i8, i8, [2 x i8], i32, i8, i8, i8, i8, i64, i64, %"class.std::shared_ptr", %"class.std::vector.45", %"class.std::shared_ptr.50", %"class.std::shared_ptr.53", %"class.std::shared_ptr.33", i8 }>
%"struct.rocksdb::MutableCFOptions" = type { i64, i32, i64, double, i8, i64, i64, i64, %"class.std::shared_ptr", double, i8, i64, i64, i32, i32, i32, i64, i8, i64, i32, i64, double, i64, i64, %"class.std::vector.15", %"struct.rocksdb::CompactionOptionsFIFO", %"class.rocksdb::CompactionOptionsUniversal", i8, i64, i64, i8, i8, double, double, i64, i32, i8, i64, i8, i8, i8, i8, i8, [3 x i8], %"struct.rocksdb::CompressionOptions", %"struct.rocksdb::CompressionOptions", i8, i32, i8, i64, %"class.std::vector.10", i32, i32, %"class.std::vector.85" }
%"class.std::vector.85" = type { %"struct.std::_Vector_base.86" }
%"struct.std::_Vector_base.86" = type { %"struct.std::_Vector_base<unsigned long, std::allocator<unsigned long>>::_Vector_impl" }
%"struct.std::_Vector_base<unsigned long, std::allocator<unsigned long>>::_Vector_impl" = type { %"struct.std::_Vector_base<unsigned long, std::allocator<unsigned long>>::_Vector_impl_data" }
%"struct.std::_Vector_base<unsigned long, std::allocator<unsigned long>>::_Vector_impl_data" = type { ptr, ptr, ptr }
%"class.std::unique_ptr" = type { %"struct.std::__uniq_ptr_data" }
%"struct.std::__uniq_ptr_data" = type { %"class.std::__uniq_ptr_impl" }
%"class.std::__uniq_ptr_impl" = type { %"class.std::tuple" }
%"class.std::tuple" = type { %"struct.std::_Tuple_impl" }
%"struct.std::_Tuple_impl" = type { %"struct.std::_Head_base.91" }
%"struct.std::_Head_base.91" = type { ptr }
%"class.std::unique_ptr.92" = type { %"struct.std::__uniq_ptr_data.93" }
%"struct.std::__uniq_ptr_data.93" = type { %"class.std::__uniq_ptr_impl.94" }
%"class.std::__uniq_ptr_impl.94" = type { %"class.std::tuple.95" }
%"class.std::tuple.95" = type { %"struct.std::_Tuple_impl.96" }
%"struct.std::_Tuple_impl.96" = type { %"struct.std::_Head_base.99" }
%"struct.std::_Head_base.99" = type { ptr }
%"class.std::unique_ptr.100" = type { %"struct.std::__uniq_ptr_data.101" }
%"struct.std::__uniq_ptr_data.101" = type { %"class.std::__uniq_ptr_impl.102" }
%"class.std::__uniq_ptr_impl.102" = type { %"class.std::tuple.103" }
%"class.std::tuple.103" = type { %"struct.std::_Tuple_impl.104" }
%"struct.std::_Tuple_impl.104" = type { %"struct.std::_Head_base.107" }
%"struct.std::_Head_base.107" = type { ptr }
%"class.std::unique_ptr.108" = type { %"struct.std::__uniq_ptr_data.109" }
%"struct.std::__uniq_ptr_data.109" = type { %"class.std::__uniq_ptr_impl.110" }
%"class.std::__uniq_ptr_impl.110" = type { %"class.std::tuple.111" }
%"class.std::tuple.111" = type { %"struct.std::_Tuple_impl.112" }
%"struct.std::_Tuple_impl.112" = type { %"struct.std::_Head_base.115" }
%"struct.std::_Head_base.115" = type { ptr }
%"class.rocksdb::MemTableList" = type <{ %"struct.std::atomic.3", %"struct.std::atomic.3", [2 x i8], i32, ptr, i32, i8, i8, [2 x i8], i64, %"struct.std::atomic.116", %"struct.std::atomic.3", [7 x i8] }>
%"class.std::unique_ptr.118" = type { %"struct.std::__uniq_ptr_data.119" }
%"struct.std::__uniq_ptr_data.119" = type { %"class.std::__uniq_ptr_impl.120" }
%"class.std::__uniq_ptr_impl.120" = type { %"class.std::tuple.121" }
%"class.std::tuple.121" = type { %"struct.std::_Tuple_impl.122" }
%"struct.std::_Tuple_impl.122" = type { %"struct.std::_Head_base.125" }
%"struct.std::_Head_base.125" = type { ptr }
%"class.std::unique_ptr.126" = type { %"struct.std::__uniq_ptr_data.127" }
%"struct.std::__uniq_ptr_data.127" = type { %"class.std::__uniq_ptr_impl.128" }
%"class.std::__uniq_ptr_impl.128" = type { %"class.std::tuple.129" }
%"class.std::tuple.129" = type { %"struct.std::_Tuple_impl.130" }
%"struct.std::_Tuple_impl.130" = type { %"struct.std::_Head_base.133" }
%"struct.std::_Head_base.133" = type { ptr }
%"class.std::unique_ptr.134" = type { %"struct.std::__uniq_ptr_data.135" }
%"struct.std::__uniq_ptr_data.135" = type { %"class.std::__uniq_ptr_impl.136" }
%"class.std::__uniq_ptr_impl.136" = type { %"class.std::tuple.137" }
%"class.std::tuple.137" = type { %"struct.std::_Tuple_impl.138" }
%"struct.std::_Tuple_impl.138" = type { %"struct.std::_Head_base.141" }
%"struct.std::_Head_base.141" = type { ptr }
%"class.std::vector.142" = type { %"struct.std::_Vector_base.143" }
%"struct.std::_Vector_base.143" = type { %"struct.std::_Vector_base<std::shared_ptr<rocksdb::FSDirectory>, std::allocator<std::shared_ptr<rocksdb::FSDirectory>>>::_Vector_impl" }
%"struct.std::_Vector_base<std::shared_ptr<rocksdb::FSDirectory>, std::allocator<std::shared_ptr<rocksdb::FSDirectory>>>::_Vector_impl" = type { %"struct.std::_Vector_base<std::shared_ptr<rocksdb::FSDirectory>, std::allocator<std::shared_ptr<rocksdb::FSDirectory>>>::_Vector_impl_data" }
%"struct.std::_Vector_base<std::shared_ptr<rocksdb::FSDirectory>, std::allocator<std::shared_ptr<rocksdb::FSDirectory>>>::_Vector_impl_data" = type { ptr, ptr, ptr }
%"class.std::shared_ptr.147" = type { %"class.std::__shared_ptr.148" }
%"class.std::__shared_ptr.148" = type { ptr, %"class.std::__shared_count" }
%"struct.std::atomic.116" = type { %"struct.std::__atomic_base.117" }
%"struct.std::__atomic_base.117" = type { i64 }

; Function Attrs: mustprogress nounwind uwtable
define linkonce_odr noundef ptr @_ZN7rocksdb16ColumnFamilyData3memEv(ptr noundef nonnull align 8 dereferenceable(2656) %this) #1 comdat align 2 {
entry:
  %this.addr = alloca ptr, align 8
  store ptr %this, ptr %this.addr, align 8
  %this1 = load ptr, ptr %this.addr, align 8
  %mem_ = getelementptr inbounds %"class.rocksdb::ColumnFamilyData", ptr %this1, i32 0, i32 18
  %0 = load ptr, ptr %mem_, align 8
  ret ptr %0
}

; Function Attrs: mustprogress nounwind uwtable
define linkonce_odr noundef ptr @_ZN7rocksdb16ColumnFamilyData3immEv(ptr noundef nonnull align 8 dereferenceable(2656) %this) #1 comdat align 2 {
entry:
  %this.addr = alloca ptr, align 8
  store ptr %this, ptr %this.addr, align 8
  %this1 = load ptr, ptr %this.addr, align 8
  %imm_ = getelementptr inbounds %"class.rocksdb::ColumnFamilyData", ptr %this1, i32 0, i32 19
  ret ptr %imm_
}

; Function Attrs: mustprogress nounwind uwtable
define linkonce_odr noundef i64 @_ZNK7rocksdb16ColumnFamilyData12GetLogNumberEv(ptr noundef nonnull align 8 dereferenceable(2656) %this) #1 comdat align 2 {
entry:
  %this.addr = alloca ptr, align 8
  store ptr %this, ptr %this.addr, align 8
  %this1 = load ptr, ptr %this.addr, align 8
  %log_number_ = getelementptr inbounds %"class.rocksdb::ColumnFamilyData", ptr %this1, i32 0, i32 25
  %0 = load i64, ptr %log_number_, align 8
  ret i64 %0
}

; Function Attrs: mustprogress uwtable
define noundef i64 @_ZN7rocksdb16ColumnFamilyData15OldestLogToKeepEv(ptr noundef nonnull align 8 dereferenceable(2656) %this) #0 align 2 {
entry:
  %this.addr = alloca ptr, align 8
  %current_log = alloca i64, align 8
  %imm_prep_log = alloca i64, align 8
  %mem_prep_log = alloca i64, align 8
  store ptr %this, ptr %this.addr, align 8
  %this1 = load ptr, ptr %this.addr, align 8
  %call = call noundef i64 @_ZNK7rocksdb16ColumnFamilyData12GetLogNumberEv(ptr noundef nonnull align 8 dereferenceable(2656) %this1)
  store i64 %call, ptr %current_log, align 8
  %allow_2pc_ = getelementptr inbounds %"class.rocksdb::ColumnFamilyData", ptr %this1, i32 0, i32 32
  %0 = load i8, ptr %allow_2pc_, align 8
  %tobool = trunc i8 %0 to i1
  br i1 %tobool, label %if.then, label %if.end13

if.then:                                          ; preds = %entry
  %call2 = call noundef ptr @_ZN7rocksdb16ColumnFamilyData3immEv(ptr noundef nonnull align 8 dereferenceable(2656) %this1)
  %call3 = call noundef i64 @_ZN7rocksdb12MemTableList37PrecomputeMinLogContainingPrepSectionEPKSt13unordered_setIPNS_8MemTableESt4hashIS3_ESt8equal_toIS3_ESaIS3_EE(ptr noundef nonnull align 8 dereferenceable(41) %call2, ptr noundef null)
  store i64 %call3, ptr %imm_prep_log, align 8
  %call4 = call noundef ptr @_ZN7rocksdb16ColumnFamilyData3memEv(ptr noundef nonnull align 8 dereferenceable(2656) %this1)
  %call5 = call noundef i64 @_ZN7rocksdb8MemTable30GetMinLogContainingPrepSectionEv(ptr noundef nonnull align 16 dereferenceable(3528) %call4)
  store i64 %call5, ptr %mem_prep_log, align 8
  %1 = load i64, ptr %imm_prep_log, align 8
  %cmp = icmp ugt i64 %1, 0
  br i1 %cmp, label %land.lhs.true, label %if.end

land.lhs.true:                                    ; preds = %if.then
  %2 = load i64, ptr %imm_prep_log, align 8
  %3 = load i64, ptr %current_log, align 8
  %cmp6 = icmp ult i64 %2, %3
  br i1 %cmp6, label %if.then7, label %if.end

if.then7:                                         ; preds = %land.lhs.true
  %4 = load i64, ptr %imm_prep_log, align 8
  store i64 %4, ptr %current_log, align 8
  br label %if.end

if.end:                                           ; preds = %if.then7, %land.lhs.true, %if.then
  %5 = load i64, ptr %mem_prep_log, align 8
  %cmp8 = icmp ugt i64 %5, 0
  br i1 %cmp8, label %land.lhs.true9, label %if.end12

land.lhs.true9:                                   ; preds = %if.end
  %6 = load i64, ptr %mem_prep_log, align 8
  %7 = load i64, ptr %current_log, align 8
  %cmp10 = icmp ult i64 %6, %7
  br i1 %cmp10, label %if.then11, label %if.end12

if.then11:                                        ; preds = %land.lhs.true9
  %8 = load i64, ptr %mem_prep_log, align 8
  store i64 %8, ptr %current_log, align 8
  br label %if.end12

if.end12:                                         ; preds = %if.then11, %land.lhs.true9, %if.end
  br label %if.end13

if.end13:                                         ; preds = %if.end12, %entry
  %9 = load i64, ptr %current_log, align 8
  ret i64 %9
}