; Function Attrs: mustprogress uwtable
define noundef i64 @_ZN7rocksdb16ColumnFamilyData15OldestLogToKeepEv(ptr noundef nonnull align 8 dereferenceable(2656) %this) local_unnamed_addr #7 align 2 {
entry:
  %log_number_.i = getelementptr inbounds i8, ptr %this, i64 2496
  %0 = load i64, ptr %log_number_.i, align 8
  %allow_2pc_ = getelementptr inbounds i8, ptr %this, i64 2544
  %1 = load i8, ptr %allow_2pc_, align 8
  %2 = and i8 %1, 1
  %tobool.not = icmp eq i8 %2, 0
  br i1 %tobool.not, label %if.end13, label %if.then

if.then:                                          ; preds = %entry
  %imm_.i = getelementptr inbounds i8, ptr %this, i64 2408
  %call3 = tail call noundef i64 @_ZN7rocksdb12MemTableList37PrecomputeMinLogContainingPrepSectionEPKSt13unordered_setIPNS_8MemTableESt4hashIS3_ESt8equal_toIS3_ESaIS3_EE(ptr noundef nonnull align 8 dereferenceable(41) %imm_.i, ptr noundef null)
  %mem_.i = getelementptr inbounds i8, ptr %this, i64 2400
  %3 = load ptr, ptr %mem_.i, align 8
  %call5 = tail call noundef i64 @_ZN7rocksdb8MemTable30GetMinLogContainingPrepSectionEv(ptr noundef nonnull align 16 dereferenceable(3528) %3)
  %cmp.not.not = icmp eq i64 %call3, 0
  %4 = tail call i64 @llvm.umin.i64(i64 %call3, i64 %0)
  %current_log.0 = select i1 %cmp.not.not, i64 %0, i64 %4
  %cmp8.not.not = icmp eq i64 %call5, 0
  %5 = tail call i64 @llvm.umin.i64(i64 %call5, i64 %current_log.0)
  %spec.select = select i1 %cmp8.not.not, i64 %current_log.0, i64 %5
  br label %if.end13

if.end13:                                         ; preds = %if.then, %entry
  %current_log.1 = phi i64 [ %0, %entry ], [ %spec.select, %if.then ]
  ret i64 %current_log.1
}